ARM GAS  C:\Users\andre\AppData\Local\Temp\ccdKzkkC.s 			page 1


   1              		.syntax unified
   2              		.cpu cortex-m3
   3              		.fpu softvfp
   4              		.eabi_attribute 20, 1
   5              		.eabi_attribute 21, 1
   6              		.eabi_attribute 23, 3
   7              		.eabi_attribute 24, 1
   8              		.eabi_attribute 25, 1
   9              		.eabi_attribute 26, 1
  10              		.eabi_attribute 30, 1
  11              		.eabi_attribute 34, 1
  12              		.eabi_attribute 18, 4
  13              		.thumb
  14              		.syntax unified
  15              		.file	"main.c"
  16              		.text
  17              	.Ltext0:
  18              		.cfi_sections	.debug_frame
  19              		.section	.text.Lectura_Boton,"ax",%progbits
  20              		.align	2
  21              		.global	Lectura_Boton
  22              		.thumb
  23              		.thumb_func
  24              		.type	Lectura_Boton, %function
  25              	Lectura_Boton:
  26              	.LFB64:
  27              		.file 1 "main.c"
   1:main.c        **** /* ========================================
   2:main.c        ****  *
   3:main.c        ****  * Copyright YOUR COMPANY, THE YEAR
   4:main.c        ****  * All Rights Reserved
   5:main.c        ****  * UNPUBLISHED, LICENSED SOFTWARE.
   6:main.c        ****  *
   7:main.c        ****  * CONFIDENTIAL AND PROPRIETARY INFORMATION
   8:main.c        ****  * WHICH IS THE PROPERTY OF your company.
   9:main.c        ****  *
  10:main.c        ****  * ========================================
  11:main.c        **** */
  12:main.c        **** #include "project.h"
  13:main.c        **** #include "stdio.h"
  14:main.c        **** #include "stdlib.h"
  15:main.c        **** 
  16:main.c        **** uint8 Estado_motor=0;
  17:main.c        **** uint8 Boton_actual=0;
  18:main.c        **** uint8 Boton_anterior=0;
  19:main.c        **** uint8 pwm_value = 0;
  20:main.c        **** char buffer_uart[5];
  21:main.c        **** 
  22:main.c        **** 
  23:main.c        **** void Lectura_Boton(){
  28              		.loc 1 23 0
  29              		.cfi_startproc
  30              		@ args = 0, pretend = 0, frame = 0
  31              		@ frame_needed = 0, uses_anonymous_args = 0
  32 0000 08B5     		push	{r3, lr}
  33              		.cfi_def_cfa_offset 8
  34              		.cfi_offset 3, -8
ARM GAS  C:\Users\andre\AppData\Local\Temp\ccdKzkkC.s 			page 2


  35              		.cfi_offset 14, -4
  24:main.c        ****     Boton_actual = Button_Read();
  36              		.loc 1 24 0
  37 0002 FFF7FEFF 		bl	Button_Read
  38              	.LVL0:
  39 0006 0D4B     		ldr	r3, .L5
  40 0008 1870     		strb	r0, [r3]
  25:main.c        ****     
  26:main.c        ****     if (Boton_actual == 0){
  41              		.loc 1 26 0
  42 000a B0B9     		cbnz	r0, .L1
  27:main.c        ****         CyDelay(100);
  43              		.loc 1 27 0
  44 000c 6420     		movs	r0, #100
  45 000e FFF7FEFF 		bl	CyDelay
  46              	.LVL1:
  28:main.c        ****         Boton_actual = Button_Read();
  47              		.loc 1 28 0
  48 0012 FFF7FEFF 		bl	Button_Read
  49              	.LVL2:
  50 0016 094B     		ldr	r3, .L5
  51 0018 1870     		strb	r0, [r3]
  29:main.c        ****         
  30:main.c        ****         if (Boton_anterior==1 && Boton_actual==0){
  52              		.loc 1 30 0
  53 001a 5B78     		ldrb	r3, [r3, #1]	@ zero_extendqisi2
  54 001c 012B     		cmp	r3, #1
  55 001e 0AD1     		bne	.L3
  56              		.loc 1 30 0 is_stmt 0 discriminator 1
  57 0020 48B9     		cbnz	r0, .L3
  31:main.c        ****             Estado_motor++;
  58              		.loc 1 31 0 is_stmt 1
  59 0022 064A     		ldr	r2, .L5
  60 0024 9378     		ldrb	r3, [r2, #2]	@ zero_extendqisi2
  61 0026 0133     		adds	r3, r3, #1
  62 0028 DBB2     		uxtb	r3, r3
  63 002a 9370     		strb	r3, [r2, #2]
  32:main.c        ****             if (Estado_motor >2){
  64              		.loc 1 32 0
  65 002c 022B     		cmp	r3, #2
  66 002e 02D9     		bls	.L3
  33:main.c        ****                 Estado_motor=0;
  67              		.loc 1 33 0
  68 0030 0022     		movs	r2, #0
  69 0032 024B     		ldr	r3, .L5
  70 0034 9A70     		strb	r2, [r3, #2]
  71              	.L3:
  34:main.c        ****             }
  35:main.c        ****         } 
  36:main.c        ****         Boton_anterior= Boton_actual;
  72              		.loc 1 36 0
  73 0036 014B     		ldr	r3, .L5
  74 0038 5870     		strb	r0, [r3, #1]
  75              	.L1:
  76 003a 08BD     		pop	{r3, pc}
  77              	.L6:
  78              		.align	2
ARM GAS  C:\Users\andre\AppData\Local\Temp\ccdKzkkC.s 			page 3


  79              	.L5:
  80 003c 00000000 		.word	.LANCHOR0
  81              		.cfi_endproc
  82              	.LFE64:
  83              		.size	Lectura_Boton, .-Lectura_Boton
  84              		.section	.text.Lectura_Serial,"ax",%progbits
  85              		.align	2
  86              		.global	Lectura_Serial
  87              		.thumb
  88              		.thumb_func
  89              		.type	Lectura_Serial, %function
  90              	Lectura_Serial:
  91              	.LFB65:
  37:main.c        ****     }
  38:main.c        **** }
  39:main.c        **** 
  40:main.c        **** void Lectura_Serial(char direccion){
  92              		.loc 1 40 0
  93              		.cfi_startproc
  94              		@ args = 0, pretend = 0, frame = 0
  95              		@ frame_needed = 0, uses_anonymous_args = 0
  96              	.LVL3:
  97 0000 10B5     		push	{r4, lr}
  98              		.cfi_def_cfa_offset 8
  99              		.cfi_offset 4, -8
 100              		.cfi_offset 14, -4
 101 0002 0446     		mov	r4, r0
  41:main.c        ****     
  42:main.c        ****     if (direccion == 'S'){//stop
 102              		.loc 1 42 0
 103 0004 5328     		cmp	r0, #83
 104 0006 05D1     		bne	.L8
  43:main.c        ****         IN3_Write(0);
 105              		.loc 1 43 0
 106 0008 0020     		movs	r0, #0
 107              	.LVL4:
 108 000a FFF7FEFF 		bl	IN3_Write
 109              	.LVL5:
  44:main.c        ****         IN4_Write(0);
 110              		.loc 1 44 0
 111 000e 0020     		movs	r0, #0
 112 0010 FFF7FEFF 		bl	IN4_Write
 113              	.LVL6:
 114              	.L8:
  45:main.c        ****     }
  46:main.c        ****     if (direccion == 'I'){//Izquierda
 115              		.loc 1 46 0
 116 0014 492C     		cmp	r4, #73
 117 0016 05D1     		bne	.L9
  47:main.c        ****         IN3_Write(1);
 118              		.loc 1 47 0
 119 0018 0120     		movs	r0, #1
 120 001a FFF7FEFF 		bl	IN3_Write
 121              	.LVL7:
  48:main.c        ****         IN4_Write(0);
 122              		.loc 1 48 0
 123 001e 0020     		movs	r0, #0
ARM GAS  C:\Users\andre\AppData\Local\Temp\ccdKzkkC.s 			page 4


 124 0020 FFF7FEFF 		bl	IN4_Write
 125              	.LVL8:
 126              	.L9:
  49:main.c        ****     }
  50:main.c        ****     if (direccion == 'D'){//Derecha
 127              		.loc 1 50 0
 128 0024 442C     		cmp	r4, #68
 129 0026 05D1     		bne	.L7
  51:main.c        ****         IN3_Write(0);
 130              		.loc 1 51 0
 131 0028 0020     		movs	r0, #0
 132 002a FFF7FEFF 		bl	IN3_Write
 133              	.LVL9:
  52:main.c        ****         IN4_Write(1);  
 134              		.loc 1 52 0
 135 002e 0120     		movs	r0, #1
 136 0030 FFF7FEFF 		bl	IN4_Write
 137              	.LVL10:
 138              	.L7:
 139 0034 10BD     		pop	{r4, pc}
 140              		.cfi_endproc
 141              	.LFE65:
 142              		.size	Lectura_Serial, .-Lectura_Serial
 143 0036 00BF     		.section	.text.Direccion,"ax",%progbits
 144              		.align	2
 145              		.global	Direccion
 146              		.thumb
 147              		.thumb_func
 148              		.type	Direccion, %function
 149              	Direccion:
 150              	.LFB66:
  53:main.c        ****     }
  54:main.c        ****     direccion = '\0';
  55:main.c        ****  
  56:main.c        **** }
  57:main.c        **** 
  58:main.c        **** void Direccion(){
 151              		.loc 1 58 0
 152              		.cfi_startproc
 153              		@ args = 0, pretend = 0, frame = 0
 154              		@ frame_needed = 0, uses_anonymous_args = 0
 155 0000 08B5     		push	{r3, lr}
 156              		.cfi_def_cfa_offset 8
 157              		.cfi_offset 3, -8
 158              		.cfi_offset 14, -4
  59:main.c        ****     
  60:main.c        ****     if (Estado_motor == 0){//stop
 159              		.loc 1 60 0
 160 0002 0F4B     		ldr	r3, .L17
 161 0004 9B78     		ldrb	r3, [r3, #2]	@ zero_extendqisi2
 162 0006 2BB9     		cbnz	r3, .L13
  61:main.c        ****         IN3_Write(0);
 163              		.loc 1 61 0
 164 0008 0020     		movs	r0, #0
 165 000a FFF7FEFF 		bl	IN3_Write
 166              	.LVL11:
  62:main.c        ****         IN4_Write(0);
ARM GAS  C:\Users\andre\AppData\Local\Temp\ccdKzkkC.s 			page 5


 167              		.loc 1 62 0
 168 000e 0020     		movs	r0, #0
 169 0010 FFF7FEFF 		bl	IN4_Write
 170              	.LVL12:
 171              	.L13:
  63:main.c        ****     }
  64:main.c        ****     if (Estado_motor == 1){//Izquierda
 172              		.loc 1 64 0
 173 0014 0A4B     		ldr	r3, .L17
 174 0016 9B78     		ldrb	r3, [r3, #2]	@ zero_extendqisi2
 175 0018 012B     		cmp	r3, #1
 176 001a 05D1     		bne	.L14
  65:main.c        ****         IN3_Write(1);
 177              		.loc 1 65 0
 178 001c 0120     		movs	r0, #1
 179 001e FFF7FEFF 		bl	IN3_Write
 180              	.LVL13:
  66:main.c        ****         IN4_Write(0);
 181              		.loc 1 66 0
 182 0022 0020     		movs	r0, #0
 183 0024 FFF7FEFF 		bl	IN4_Write
 184              	.LVL14:
 185              	.L14:
  67:main.c        ****     }
  68:main.c        ****     if (Estado_motor == 2){//Derecha
 186              		.loc 1 68 0
 187 0028 054B     		ldr	r3, .L17
 188 002a 9B78     		ldrb	r3, [r3, #2]	@ zero_extendqisi2
 189 002c 022B     		cmp	r3, #2
 190 002e 05D1     		bne	.L12
  69:main.c        ****         IN3_Write(0);
 191              		.loc 1 69 0
 192 0030 0020     		movs	r0, #0
 193 0032 FFF7FEFF 		bl	IN3_Write
 194              	.LVL15:
  70:main.c        ****         IN4_Write(1);
 195              		.loc 1 70 0
 196 0036 0120     		movs	r0, #1
 197 0038 FFF7FEFF 		bl	IN4_Write
 198              	.LVL16:
 199              	.L12:
 200 003c 08BD     		pop	{r3, pc}
 201              	.L18:
 202 003e 00BF     		.align	2
 203              	.L17:
 204 0040 00000000 		.word	.LANCHOR0
 205              		.cfi_endproc
 206              	.LFE66:
 207              		.size	Direccion, .-Direccion
 208              		.section	.text.comunicacion_serial,"ax",%progbits
 209              		.align	2
 210              		.global	comunicacion_serial
 211              		.thumb
 212              		.thumb_func
 213              		.type	comunicacion_serial, %function
 214              	comunicacion_serial:
 215              	.LFB67:
ARM GAS  C:\Users\andre\AppData\Local\Temp\ccdKzkkC.s 			page 6


  71:main.c        ****        
  72:main.c        ****     }
  73:main.c        **** }
  74:main.c        **** 
  75:main.c        **** void comunicacion_serial(){
 216              		.loc 1 75 0
 217              		.cfi_startproc
 218              		@ args = 0, pretend = 0, frame = 0
 219              		@ frame_needed = 0, uses_anonymous_args = 0
 220 0000 38B5     		push	{r3, r4, r5, lr}
 221              		.cfi_def_cfa_offset 16
 222              		.cfi_offset 3, -16
 223              		.cfi_offset 4, -12
 224              		.cfi_offset 5, -8
 225              		.cfi_offset 14, -4
 226              	.LVL17:
  76:main.c        ****     uint8 i=0;
  77:main.c        ****     char caracteres;
  78:main.c        ****     char sentido=0;
  79:main.c        ****     if (UART_GetRxBufferSize()>0){
 227              		.loc 1 79 0
 228 0002 FFF7FEFF 		bl	UART_GetRxBufferSize
 229              	.LVL18:
 230 0006 E8B1     		cbz	r0, .L19
 231 0008 0025     		movs	r5, #0
 232 000a 2C46     		mov	r4, r5
 233              	.LVL19:
 234              	.L23:
  80:main.c        ****         while (1){
  81:main.c        ****            caracteres = UART_GetChar();
 235              		.loc 1 81 0
 236 000c FFF7FEFF 		bl	UART_GetChar
 237              	.LVL20:
  82:main.c        ****            if (caracteres == '\n'){
 238              		.loc 1 82 0
 239 0010 0A28     		cmp	r0, #10
 240 0012 14D0     		beq	.L21
  83:main.c        ****                 break;
  84:main.c        ****             }
  85:main.c        ****             if (caracteres != 0){
 241              		.loc 1 85 0
 242 0014 30B1     		cbz	r0, .L22
  86:main.c        ****             
  87:main.c        ****                 buffer_uart[i++] = caracteres;
 243              		.loc 1 87 0
 244 0016 631C     		adds	r3, r4, #1
 245 0018 DBB2     		uxtb	r3, r3
 246              	.LVL21:
 247 001a 0B4A     		ldr	r2, .L25
 248 001c 1055     		strb	r0, [r2, r4]
  88:main.c        ****                 
  89:main.c        ****                 if (i > 4){
 249              		.loc 1 89 0
 250 001e 042B     		cmp	r3, #4
 251 0020 0DD8     		bhi	.L21
  87:main.c        ****                 
 252              		.loc 1 87 0
ARM GAS  C:\Users\andre\AppData\Local\Temp\ccdKzkkC.s 			page 7


 253 0022 1C46     		mov	r4, r3
 254              	.LVL22:
 255              	.L22:
  90:main.c        ****                   break;
  91:main.c        ****                 }}
  92:main.c        ****         buffer_uart[i] = '\0';  
 256              		.loc 1 92 0
 257 0024 0848     		ldr	r0, .L25
 258              	.LVL23:
 259 0026 0023     		movs	r3, #0
 260 0028 0355     		strb	r3, [r0, r4]
  93:main.c        ****         sentido = buffer_uart[0];
 261              		.loc 1 93 0
 262 002a 10F8015B 		ldrb	r5, [r0], #1	@ zero_extendqisi2
 263              	.LVL24:
  94:main.c        ****         pwm_value = atoi(&buffer_uart[1]);
 264              		.loc 1 94 0
 265 002e FFF7FEFF 		bl	atoi
 266              	.LVL25:
 267 0032 C0B2     		uxtb	r0, r0
 268 0034 054B     		ldr	r3, .L25+4
 269 0036 D870     		strb	r0, [r3, #3]
  95:main.c        ****         PWM_WriteCompare(pwm_value);
 270              		.loc 1 95 0
 271 0038 FFF7FEFF 		bl	PWM_WriteCompare
 272              	.LVL26:
  96:main.c        ****         //Lectura_Serial(sentido);
  97:main.c        ****         }
 273              		.loc 1 97 0
 274 003c E6E7     		b	.L23
 275              	.LVL27:
 276              	.L21:
  98:main.c        ****        Lectura_Serial(sentido);
 277              		.loc 1 98 0
 278 003e 2846     		mov	r0, r5
 279              	.LVL28:
 280 0040 FFF7FEFF 		bl	Lectura_Serial
 281              	.LVL29:
 282              	.L19:
 283 0044 38BD     		pop	{r3, r4, r5, pc}
 284              	.L26:
 285 0046 00BF     		.align	2
 286              	.L25:
 287 0048 00000000 		.word	buffer_uart
 288 004c 00000000 		.word	.LANCHOR0
 289              		.cfi_endproc
 290              	.LFE67:
 291              		.size	comunicacion_serial, .-comunicacion_serial
 292              		.section	.text.velocidad,"ax",%progbits
 293              		.align	2
 294              		.global	velocidad
 295              		.thumb
 296              		.thumb_func
 297              		.type	velocidad, %function
 298              	velocidad:
 299              	.LFB68:
  99:main.c        ****     }    
ARM GAS  C:\Users\andre\AppData\Local\Temp\ccdKzkkC.s 			page 8


 100:main.c        **** }
 101:main.c        **** 
 102:main.c        **** void velocidad (){
 300              		.loc 1 102 0
 301              		.cfi_startproc
 302              		@ args = 0, pretend = 0, frame = 0
 303              		@ frame_needed = 0, uses_anonymous_args = 0
 304              		@ link register save eliminated.
 305 0000 7047     		bx	lr
 306              		.cfi_endproc
 307              	.LFE68:
 308              		.size	velocidad, .-velocidad
 309 0002 00BF     		.section	.text.main,"ax",%progbits
 310              		.align	2
 311              		.global	main
 312              		.thumb
 313              		.thumb_func
 314              		.type	main, %function
 315              	main:
 316              	.LFB69:
 103:main.c        **** 
 104:main.c        **** 
 105:main.c        **** }
 106:main.c        **** 
 107:main.c        **** int main(void)
 108:main.c        **** {
 317              		.loc 1 108 0
 318              		.cfi_startproc
 319              		@ Volatile: function does not return.
 320              		@ args = 0, pretend = 0, frame = 0
 321              		@ frame_needed = 0, uses_anonymous_args = 0
 322              		.loc 1 108 0
 323 0000 08B5     		push	{r3, lr}
 324              		.cfi_def_cfa_offset 8
 325              		.cfi_offset 3, -8
 326              		.cfi_offset 14, -4
 109:main.c        ****     CyGlobalIntEnable; /* Enable global interrupts. */
 327              		.loc 1 109 0
 328              		.syntax unified
 329              	@ 109 "main.c" 1
 330 0002 62B6     		CPSIE   i
 331              	@ 0 "" 2
 110:main.c        **** 
 111:main.c        ****     /* Place your initialization/startup code here (e.g. MyInst_Start()) */
 112:main.c        ****     PWM_Start();
 332              		.loc 1 112 0
 333              		.thumb
 334              		.syntax unified
 335 0004 FFF7FEFF 		bl	PWM_Start
 336              	.LVL30:
 113:main.c        ****     UART_Start();
 337              		.loc 1 113 0
 338 0008 FFF7FEFF 		bl	UART_Start
 339              	.LVL31:
 114:main.c        ****     UART_PutString("hola esta es la prueba");
 340              		.loc 1 114 0
 341 000c 0548     		ldr	r0, .L31
ARM GAS  C:\Users\andre\AppData\Local\Temp\ccdKzkkC.s 			page 9


 342 000e FFF7FEFF 		bl	UART_PutString
 343              	.LVL32:
 115:main.c        ****     //I2C_Start();
 116:main.c        ****     //QuadDec_Start();
 117:main.c        ****     Encoder_Start();
 344              		.loc 1 117 0
 345 0012 FFF7FEFF 		bl	Encoder_Start
 346              	.LVL33:
 118:main.c        ****     Encoder_SetCounter(0);
 347              		.loc 1 118 0
 348 0016 0020     		movs	r0, #0
 349 0018 FFF7FEFF 		bl	Encoder_SetCounter
 350              	.LVL34:
 351              	.L29:
 119:main.c        ****     
 120:main.c        ****  
 121:main.c        ****     
 122:main.c        **** 
 123:main.c        ****     for(;;)
 124:main.c        ****     {
 125:main.c        ****         //Lectura_Boton();
 126:main.c        ****         //Direccion();
 127:main.c        ****         comunicacion_serial();
 352              		.loc 1 127 0 discriminator 1
 353 001c FFF7FEFF 		bl	comunicacion_serial
 354              	.LVL35:
 355 0020 FCE7     		b	.L29
 356              	.L32:
 357 0022 00BF     		.align	2
 358              	.L31:
 359 0024 00000000 		.word	.LC0
 360              		.cfi_endproc
 361              	.LFE69:
 362              		.size	main, .-main
 363              		.comm	buffer_uart,5,4
 364              		.global	pwm_value
 365              		.global	Boton_anterior
 366              		.global	Boton_actual
 367              		.global	Estado_motor
 368              		.section	.rodata.str1.4,"aMS",%progbits,1
 369              		.align	2
 370              	.LC0:
 371 0000 686F6C61 		.ascii	"hola esta es la prueba\000"
 371      20657374 
 371      61206573 
 371      206C6120 
 371      70727565 
 372              		.bss
 373              		.set	.LANCHOR0,. + 0
 374              		.type	Boton_actual, %object
 375              		.size	Boton_actual, 1
 376              	Boton_actual:
 377 0000 00       		.space	1
 378              		.type	Boton_anterior, %object
 379              		.size	Boton_anterior, 1
 380              	Boton_anterior:
 381 0001 00       		.space	1
ARM GAS  C:\Users\andre\AppData\Local\Temp\ccdKzkkC.s 			page 10


 382              		.type	Estado_motor, %object
 383              		.size	Estado_motor, 1
 384              	Estado_motor:
 385 0002 00       		.space	1
 386              		.type	pwm_value, %object
 387              		.size	pwm_value, 1
 388              	pwm_value:
 389 0003 00       		.space	1
 390              		.text
 391              	.Letext0:
 392              		.file 2 "c:\\program files (x86)\\cypress\\psoc creator\\4.4\\psoc creator\\import\\gnu\\arm\\5.4.
 393              		.file 3 "c:\\program files (x86)\\cypress\\psoc creator\\4.4\\psoc creator\\import\\gnu\\arm\\5.4.
 394              		.file 4 "Generated_Source\\PSoC5/cytypes.h"
 395              		.file 5 "Generated_Source\\PSoC5/core_cm3.h"
 396              		.file 6 "Generated_Source\\PSoC5/Button.h"
 397              		.file 7 "Generated_Source\\PSoC5/CyLib.h"
 398              		.file 8 "Generated_Source\\PSoC5/IN3.h"
 399              		.file 9 "Generated_Source\\PSoC5/IN4.h"
 400              		.file 10 "Generated_Source\\PSoC5/UART.h"
 401              		.file 11 "c:\\program files (x86)\\cypress\\psoc creator\\4.4\\psoc creator\\import\\gnu\\arm\\5.4
 402              		.file 12 "Generated_Source\\PSoC5/PWM.h"
 403              		.file 13 "Generated_Source\\PSoC5/Encoder.h"